; Function Attrs: mustprogress uwtable
define void @_ZN32pxrInternal_v0_24__pxrReserved__7VtValue12CastToTypeidERKS0_RKSt9type_info(ptr dead_on_unwind noalias writable sret(%"class.pxrInternal_v0_24__pxrReserved__::VtValue") align 8 %0, ptr noundef nonnull align 8 dereferenceable(16) %1, ptr noundef nonnull align 8 dereferenceable(16) %2) local_unnamed_addr #0 align 2 personality ptr @__gxx_personality_v0 {
  %4 = alloca %"class.pxrInternal_v0_24__pxrReserved__::VtValue", align 8
  %5 = getelementptr inbounds nuw i8, ptr %4, i64 8
  store ptr null, ptr %5, align 8
  call void @_ZN32pxrInternal_v0_24__pxrReserved__7VtValue5_CopyERKS0_RS0_(ptr noundef nonnull align 8 dereferenceable(16) %1, ptr noundef nonnull align 8 dereferenceable(16) %4)
  %6 = invoke noundef nonnull align 8 dereferenceable(16) ptr @_ZN32pxrInternal_v0_24__pxrReserved__7VtValue12CastToTypeidERKSt9type_info(ptr noundef nonnull align 8 dereferenceable(16) %4, ptr noundef nonnull align 8 dereferenceable(16) %2)
          to label %7 unwind label %21

7:                                                ; preds = %3
  %8 = getelementptr inbounds nuw i8, ptr %0, i64 8
  store ptr null, ptr %8, align 8
  invoke void @_ZN32pxrInternal_v0_24__pxrReserved__7VtValue5_CopyERKS0_RS0_(ptr noundef nonnull align 8 dereferenceable(16) %6, ptr noundef nonnull align 8 dereferenceable(16) %0)
          to label %_ZN32pxrInternal_v0_24__pxrReserved__7VtValueC2ERKS0_.exit unwind label %21

_ZN32pxrInternal_v0_24__pxrReserved__7VtValueC2ERKS0_.exit: ; preds = %7
  %9 = load ptr, ptr %5, align 8
  %10 = ptrtoint ptr %9 to i64
  %.not.i.i = icmp eq ptr %9, null
  %11 = and i64 %10, 3
  %12 = icmp eq i64 %11, 3
  %or.cond.i.i = or i1 %.not.i.i, %12
  br i1 %or.cond.i.i, label %_ZN32pxrInternal_v0_24__pxrReserved__7VtValueD2Ev.exit, label %13

13:                                               ; preds = %_ZN32pxrInternal_v0_24__pxrReserved__7VtValueC2ERKS0_.exit
  %14 = and i64 %10, -8
  %15 = inttoptr i64 %14 to ptr
  %16 = getelementptr inbounds nuw i8, ptr %15, i64 32
  %17 = load ptr, ptr %16, align 8
  invoke void %17(ptr noundef nonnull align 8 dereferenceable(8) %4)
          to label %_ZN32pxrInternal_v0_24__pxrReserved__7VtValueD2Ev.exit unwind label %18

18:                                               ; preds = %13
  %19 = landingpad { ptr, i32 }
          catch ptr null
  %20 = extractvalue { ptr, i32 } %19, 0
  call void @__clang_call_terminate(ptr %20) #26
  unreachable

_ZN32pxrInternal_v0_24__pxrReserved__7VtValueD2Ev.exit: ; preds = %_ZN32pxrInternal_v0_24__pxrReserved__7VtValueC2ERKS0_.exit, %13
  ret void

21:                                               ; preds = %7, %3
  %22 = landingpad { ptr, i32 }
          cleanup
  call void @_ZN32pxrInternal_v0_24__pxrReserved__7VtValueD2Ev(ptr noundef nonnull align 8 dereferenceable(16) %4) #16
  resume { ptr, i32 } %22
}